target datalayout = "e-m:e-p270:32:32-p271:32:32-p272:64:64-i64:64-i128:128-f80:128-n8:16:32:64-S128"
target triple = "x86_64-pc-linux-gnu"

%struct.H5O_link_t = type { i32, i8, i64, i32, ptr, %union.anon }
%union.anon = type { %struct.H5O_link_ud_t }
%struct.H5O_link_ud_t = type { ptr, i64 }
%struct.H5G_link_table_t = type { i64, ptr }

@H5G_init_g = external global i8, align 1
@H5_libterm_g = external global i8, align 1
@.str = private unnamed_addr constant [101 x i8] c"generated/home/dtcxzyw/WorkSpace/Projects/compilers/llvm-opt-benchmark/bench/hdf5/hdf5/src/H5Glink.c\00", align 1
@H5E_SYM_g = external global i64, align 8
@__func__.H5G__link_iterate_table = private unnamed_addr constant [24 x i8] c"H5G__link_iterate_table\00", align 1
@H5E_CANTNEXT_g = external global i64, align 8
@.str.16 = private unnamed_addr constant [26 x i8] c"iteration operator failed\00", align 1

; Function Attrs: nounwind uwtable
define i32 @H5G__link_iterate_table(ptr noundef %0, i64 noundef %1, ptr noundef %2, ptr noundef %3, ptr noundef %4) #0 {
  %6 = alloca ptr, align 8
  %7 = alloca i64, align 8
  %8 = alloca ptr, align 8
  %9 = alloca ptr, align 8
  %10 = alloca ptr, align 8
  %11 = alloca i64, align 8
  %12 = alloca i32, align 4
  store ptr %0, ptr %6, align 8, !tbaa !10
  store i64 %1, ptr %7, align 8, !tbaa !17
  store ptr %2, ptr %8, align 8, !tbaa !67
  store ptr %3, ptr %9, align 8, !tbaa !10
  store ptr %4, ptr %10, align 8, !tbaa !10
  call void @llvm.lifetime.start.p0(i64 8, ptr %11) #6
  call void @llvm.lifetime.start.p0(i64 4, ptr %12) #6
  store i32 0, ptr %12, align 4, !tbaa !11
  %13 = load i8, ptr @H5G_init_g, align 1, !tbaa !13, !range !15, !noundef !16
  %14 = trunc i8 %13 to i1
  br i1 %14, label %19, label %15

15:                                               ; preds = %5
  %16 = load i8, ptr @H5_libterm_g, align 1, !tbaa !13, !range !15, !noundef !16
  %17 = trunc i8 %16 to i1
  %18 = xor i1 %17, true
  br label %19

19:                                               ; preds = %15, %5
  %20 = phi i1 [ true, %5 ], [ %18, %15 ]
  %21 = xor i1 %20, true
  %22 = xor i1 %21, true
  %23 = zext i1 %22 to i32
  %24 = sext i32 %23 to i64
  %25 = call i64 @llvm.expect.i64(i64 %24, i64 1)
  %26 = icmp ne i64 %25, 0
  br i1 %26, label %27, label %82

27:                                               ; preds = %19
  %28 = load ptr, ptr %8, align 8, !tbaa !67
  %29 = icmp ne ptr %28, null
  br i1 %29, label %30, label %35

30:                                               ; preds = %27
  %31 = load i64, ptr %7, align 8, !tbaa !17
  %32 = load ptr, ptr %8, align 8, !tbaa !67
  %33 = load i64, ptr %32, align 8, !tbaa !17
  %34 = add i64 %33, %31
  store i64 %34, ptr %32, align 8, !tbaa !17
  br label %35

35:                                               ; preds = %30, %27
  br label %36

36:                                               ; preds = %35
  %37 = load i64, ptr %7, align 8, !tbaa !17
  store i64 %37, ptr %11, align 8, !tbaa !17
  br label %38

38:                                               ; preds = %36
  br label %39

39:                                               ; preds = %38
  br label %40

40:                                               ; preds = %68, %39
  %41 = load i64, ptr %11, align 8, !tbaa !17
  %42 = load ptr, ptr %6, align 8, !tbaa !10
  %43 = getelementptr inbounds nuw %struct.H5G_link_table_t, ptr %42, i32 0, i32 0
  %44 = load i64, ptr %43, align 8, !tbaa !64
  %45 = icmp ult i64 %41, %44
  br i1 %45, label %46, label %50

46:                                               ; preds = %40
  %47 = load i32, ptr %12, align 4, !tbaa !11
  %48 = icmp ne i32 %47, 0
  %49 = xor i1 %48, true
  br label %50

50:                                               ; preds = %46, %40
  %51 = phi i1 [ false, %40 ], [ %49, %46 ]
  br i1 %51, label %52, label %71

52:                                               ; preds = %50
  %53 = load ptr, ptr %9, align 8, !tbaa !10
  %54 = load ptr, ptr %6, align 8, !tbaa !10
  %55 = getelementptr inbounds nuw %struct.H5G_link_table_t, ptr %54, i32 0, i32 1
  %56 = load ptr, ptr %55, align 8, !tbaa !66
  %57 = load i64, ptr %11, align 8, !tbaa !17
  %58 = getelementptr inbounds nuw %struct.H5O_link_t, ptr %56, i64 %57
  %59 = load ptr, ptr %10, align 8, !tbaa !10
  %60 = call i32 %53(ptr noundef %58, ptr noundef %59)
  store i32 %60, ptr %12, align 4, !tbaa !11
  %61 = load ptr, ptr %8, align 8, !tbaa !67
  %62 = icmp ne ptr %61, null
  br i1 %62, label %63, label %67

63:                                               ; preds = %52
  %64 = load ptr, ptr %8, align 8, !tbaa !67
  %65 = load i64, ptr %64, align 8, !tbaa !17
  %66 = add i64 %65, 1
  store i64 %66, ptr %64, align 8, !tbaa !17
  br label %67

67:                                               ; preds = %63, %52
  br label %68

68:                                               ; preds = %67
  %69 = load i64, ptr %11, align 8, !tbaa !17
  %70 = add i64 %69, 1
  store i64 %70, ptr %11, align 8, !tbaa !17
  br label %40, !llvm.loop !69

71:                                               ; preds = %50
  %72 = load i32, ptr %12, align 4, !tbaa !11
  %73 = icmp slt i32 %72, 0
  br i1 %73, label %74, label %81

74:                                               ; preds = %71
  br label %75

75:                                               ; preds = %74
  %76 = load i64, ptr @H5E_SYM_g, align 8, !tbaa !17
  %77 = load i64, ptr @H5E_CANTNEXT_g, align 8, !tbaa !17
  %78 = call i32 (ptr, ptr, i32, i64, i64, ptr, ...) @H5E_printf_stack(ptr noundef @.str, ptr noundef @__func__.H5G__link_iterate_table, i32 noundef 529, i64 noundef %76, i64 noundef %77, ptr noundef @.str.16)
  br label %79

79:                                               ; preds = %75
  br label %80

80:                                               ; preds = %79
  br label %81

81:                                               ; preds = %80, %71
  br label %82

82:                                               ; preds = %81, %19
  %83 = load i32, ptr %12, align 4, !tbaa !11
  call void @llvm.lifetime.end.p0(i64 4, ptr %12) #6
  call void @llvm.lifetime.end.p0(i64 8, ptr %11) #6
  ret i32 %83
}