; Function Attrs: nounwind uwtable
define i32 @H5G__link_iterate_table(ptr noundef readonly captures(none) %0, i64 noundef %1, ptr noundef captures(address_is_null) %2, ptr noundef readonly captures(none) %3, ptr noundef %4) local_unnamed_addr #0 {
  %6 = load i8, ptr @H5G_init_g, align 1, !tbaa !3, !range !7, !noundef !8
  %7 = trunc nuw i8 %6 to i1
  %8 = load i8, ptr @H5_libterm_g, align 1, !range !7
  %9 = trunc nuw i8 %8 to i1
  %10 = xor i1 %9, true
  %11 = select i1 %7, i1 true, i1 %10
  br i1 %11, label %12, label %._crit_edge.thread, !prof !9

12:                                               ; preds = %5
  %.not = icmp eq ptr %2, null
  br i1 %.not, label %13, label %.thread

13:                                               ; preds = %12
  %14 = load i64, ptr %0, align 8, !tbaa !50
  %15 = icmp ult i64 %1, %14
  br i1 %15, label %.lr.ph.split.us.preheader, label %._crit_edge.thread

.thread:                                          ; preds = %12
  %16 = load i64, ptr %2, align 8, !tbaa !10
  %17 = add i64 %16, %1
  store i64 %17, ptr %2, align 8, !tbaa !10
  %18 = load i64, ptr %0, align 8, !tbaa !50
  %19 = icmp ult i64 %1, %18
  br i1 %19, label %.lr.ph.split.preheader, label %._crit_edge.thread

.lr.ph.split.preheader:                           ; preds = %.thread
  %20 = getelementptr inbounds nuw i8, ptr %0, i64 8
  br label %.lr.ph.split

.lr.ph.split.us.preheader:                        ; preds = %13
  %21 = getelementptr inbounds nuw i8, ptr %0, i64 8
  br label %.lr.ph.split.us

.lr.ph.split.us:                                  ; preds = %.lr.ph.split.us.preheader, %.lr.ph.split.us
  %.01519.us = phi i64 [ %25, %.lr.ph.split.us ], [ %1, %.lr.ph.split.us.preheader ]
  %22 = load ptr, ptr %21, align 8, !tbaa !53
  %23 = getelementptr inbounds nuw %struct.H5O_link_t, ptr %22, i64 %.01519.us
  %24 = tail call i32 %3(ptr noundef %23, ptr noundef %4) #9
  %25 = add nuw i64 %.01519.us, 1
  %26 = load i64, ptr %0, align 8, !tbaa !50
  %27 = icmp ult i64 %25, %26
  %.not18.us = icmp eq i32 %24, 0
  %28 = select i1 %27, i1 %.not18.us, i1 false
  br i1 %28, label %.lr.ph.split.us, label %._crit_edge, !llvm.loop !54

.lr.ph.split:                                     ; preds = %.lr.ph.split.preheader, %.lr.ph.split
  %.01519 = phi i64 [ %34, %.lr.ph.split ], [ %1, %.lr.ph.split.preheader ]
  %29 = load ptr, ptr %20, align 8, !tbaa !53
  %30 = getelementptr inbounds nuw %struct.H5O_link_t, ptr %29, i64 %.01519
  %31 = tail call i32 %3(ptr noundef %30, ptr noundef %4) #9
  %32 = load i64, ptr %2, align 8, !tbaa !10
  %33 = add i64 %32, 1
  store i64 %33, ptr %2, align 8, !tbaa !10
  %34 = add nuw i64 %.01519, 1
  %35 = load i64, ptr %0, align 8, !tbaa !50
  %36 = icmp ult i64 %34, %35
  %.not18 = icmp eq i32 %31, 0
  %37 = select i1 %36, i1 %.not18, i1 false
  br i1 %37, label %.lr.ph.split, label %._crit_edge, !llvm.loop !54

._crit_edge:                                      ; preds = %.lr.ph.split, %.lr.ph.split.us
  %.1.lcssa = phi i32 [ %24, %.lr.ph.split.us ], [ %31, %.lr.ph.split ]
  %38 = icmp slt i32 %.1.lcssa, 0
  br i1 %38, label %39, label %._crit_edge.thread

39:                                               ; preds = %._crit_edge
  %40 = load i64, ptr @H5E_SYM_g, align 8, !tbaa !10
  %41 = load i64, ptr @H5E_CANTNEXT_g, align 8, !tbaa !10
  %42 = tail call i32 (ptr, ptr, i32, i64, i64, ptr, ...) @H5E_printf_stack(ptr noundef nonnull @.str, ptr noundef nonnull @__func__.H5G__link_iterate_table, i32 noundef 529, i64 noundef %40, i64 noundef %41, ptr noundef nonnull @.str.16) #9
  br label %._crit_edge.thread

._crit_edge.thread:                               ; preds = %.thread, %13, %._crit_edge, %39, %5
  %.0 = phi i32 [ %.1.lcssa, %39 ], [ %.1.lcssa, %._crit_edge ], [ 0, %5 ], [ 0, %13 ], [ 0, %.thread ]
  ret i32 %.0
}